; Function Attrs: nounwind uwtable
define internal void @kbkdf_reset(ptr noundef captures(none) initializes((8, 16), (24, 32), (96, 112)) %0) #0 {
  %2 = load ptr, ptr %0, align 8, !tbaa !3
  %3 = getelementptr inbounds nuw i8, ptr %0, i64 16
  %4 = load ptr, ptr %3, align 8, !tbaa !16
  tail call void @EVP_MAC_CTX_free(ptr noundef %4) #7
  %5 = getelementptr inbounds nuw i8, ptr %0, i64 64
  %6 = load ptr, ptr %5, align 8, !tbaa !21
  %7 = getelementptr inbounds nuw i8, ptr %0, i64 72
  %8 = load i64, ptr %7, align 8, !tbaa !22
  tail call void @CRYPTO_clear_free(ptr noundef %6, i64 noundef %8, ptr noundef nonnull @.str, i32 noundef 147) #7
  %9 = getelementptr inbounds nuw i8, ptr %0, i64 48
  %10 = load ptr, ptr %9, align 8, !tbaa !19
  %11 = getelementptr inbounds nuw i8, ptr %0, i64 56
  %12 = load i64, ptr %11, align 8, !tbaa !20
  tail call void @CRYPTO_clear_free(ptr noundef %10, i64 noundef %12, ptr noundef nonnull @.str, i32 noundef 148) #7
  %13 = getelementptr inbounds nuw i8, ptr %0, i64 32
  %14 = load ptr, ptr %13, align 8, !tbaa !17
  %15 = getelementptr inbounds nuw i8, ptr %0, i64 40
  %16 = load i64, ptr %15, align 8, !tbaa !18
  tail call void @CRYPTO_clear_free(ptr noundef %14, i64 noundef %16, ptr noundef nonnull @.str, i32 noundef 149) #7
  %17 = getelementptr inbounds nuw i8, ptr %0, i64 80
  %18 = load ptr, ptr %17, align 8, !tbaa !23
  %19 = getelementptr inbounds nuw i8, ptr %0, i64 88
  %20 = load i64, ptr %19, align 8, !tbaa !24
  tail call void @CRYPTO_clear_free(ptr noundef %18, i64 noundef %20, ptr noundef nonnull @.str, i32 noundef 150) #7
  %21 = getelementptr inbounds nuw i8, ptr %0, i64 8
  tail call void @llvm.memset.p0.i64(ptr noundef nonnull align 8 dereferenceable(112) %21, i8 0, i64 104, i1 false)
  store ptr %2, ptr %0, align 8, !tbaa !3
  %22 = getelementptr inbounds nuw i8, ptr %0, i64 24
  store i32 32, ptr %22, align 8, !tbaa !12
  %23 = getelementptr inbounds nuw i8, ptr %0, i64 96
  store i32 1, ptr %23, align 8, !tbaa !13
  %24 = getelementptr inbounds nuw i8, ptr %0, i64 104
  store i32 1, ptr %24, align 8, !tbaa !14
  ret void
}